; Function Attrs: nounwind uwtable
define internal fastcc void @checkBinary(ptr noundef readonly captures(none) %0, ptr noundef %1, ptr noundef %2, ptr noundef %3) unnamed_addr #0 {
  %5 = getelementptr inbounds nuw i8, ptr %0, i64 160
  %6 = load ptr, ptr %5, align 8
  %7 = getelementptr inbounds nuw i8, ptr %6, i64 64
  %8 = load ptr, ptr %7, align 8
  %9 = tail call i32 %8(ptr noundef %1, ptr noundef %2, ptr noundef %3, i32 noundef 1) #22
  %10 = icmp slt i32 %9, 0
  br i1 %10, label %11, label %57

11:                                               ; preds = %4
  %.not = icmp eq ptr %3, null
  %12 = getelementptr inbounds nuw i8, ptr %2, i64 4
  %13 = load i32, ptr %12, align 4
  %14 = tail call ptr @exopname(i32 noundef %13) #22
  %15 = load i32, ptr %1, align 8
  %16 = icmp sgt i32 %15, 258
  br i1 %.not, label %44, label %17

17:                                               ; preds = %11
  br i1 %16, label %18, label %25

18:                                               ; preds = %17
  %19 = icmp samesign ult i32 %15, 264
  %20 = add nsw i32 %15, -258
  %21 = select i1 %19, i32 %20, i32 0
  %22 = zext nneg i32 %21 to i64
  %23 = getelementptr inbounds nuw [6 x ptr], ptr @typename, i64 0, i64 %22
  %24 = load ptr, ptr %23, align 8
  br label %extypename.exit

25:                                               ; preds = %17
  %26 = load ptr, ptr %5, align 8
  %27 = getelementptr inbounds nuw i8, ptr %26, i64 72
  %28 = load ptr, ptr %27, align 8
  %29 = tail call ptr %28(i32 noundef %15) #22
  br label %extypename.exit

extypename.exit:                                  ; preds = %18, %25
  %.0.i = phi ptr [ %24, %18 ], [ %29, %25 ]
  %30 = load i32, ptr %3, align 8
  %31 = icmp sgt i32 %30, 258
  br i1 %31, label %32, label %39

32:                                               ; preds = %extypename.exit
  %33 = icmp samesign ult i32 %30, 264
  %34 = add nsw i32 %30, -258
  %35 = select i1 %33, i32 %34, i32 0
  %36 = zext nneg i32 %35 to i64
  %37 = getelementptr inbounds nuw [6 x ptr], ptr @typename, i64 0, i64 %36
  %38 = load ptr, ptr %37, align 8
  br label %extypename.exit14

39:                                               ; preds = %extypename.exit
  %40 = load ptr, ptr %5, align 8
  %41 = getelementptr inbounds nuw i8, ptr %40, i64 72
  %42 = load ptr, ptr %41, align 8
  %43 = tail call ptr %42(i32 noundef %30) #22
  br label %extypename.exit14

extypename.exit14:                                ; preds = %32, %39
  %.0.i13 = phi ptr [ %38, %32 ], [ %43, %39 ]
  tail call void (ptr, ...) @exerror(ptr noundef nonnull @.str.75, ptr noundef %14, ptr noundef %.0.i, ptr noundef %.0.i13) #22
  br label %57

44:                                               ; preds = %11
  br i1 %16, label %45, label %52

45:                                               ; preds = %44
  %46 = icmp samesign ult i32 %15, 264
  %47 = add nsw i32 %15, -258
  %48 = select i1 %46, i32 %47, i32 0
  %49 = zext nneg i32 %48 to i64
  %50 = getelementptr inbounds nuw [6 x ptr], ptr @typename, i64 0, i64 %49
  %51 = load ptr, ptr %50, align 8
  br label %extypename.exit16

52:                                               ; preds = %44
  %53 = load ptr, ptr %5, align 8
  %54 = getelementptr inbounds nuw i8, ptr %53, i64 72
  %55 = load ptr, ptr %54, align 8
  %56 = tail call ptr %55(i32 noundef %15) #22
  br label %extypename.exit16

extypename.exit16:                                ; preds = %45, %52
  %.0.i15 = phi ptr [ %51, %45 ], [ %56, %52 ]
  tail call void (ptr, ...) @exerror(ptr noundef nonnull @.str.76, ptr noundef %14, ptr noundef %.0.i15) #22
  br label %57

57:                                               ; preds = %extypename.exit14, %extypename.exit16, %4
  ret void
}